Certificate:
    Data:
        Version: 3 (0x2)
        Serial Number: 3 (0x3)
    Signature Algorithm: sha256WithRSAEncryption
        Issuer: C=RU, ST=CA, L=SanFrancisco, O=Fort, OU=MyOrganizationalUnit, CN=Fort CA/name=EasyRSA/emailAddress=me@mydomain
        Validity
            Not Before: Mar  6 04:36:01 2017 GMT
            Not After : Feb 10 04:36:01 2117 GMT
        Subject: C=US, ST=CA, L=SanFrancisco, O=Fort, OU=MyOrganizationalUnit, CN=client2/name=EasyRSA/emailAddress=me@mydomain
        Subject Public Key Info:
            Public Key Algorithm: rsaEncryption
                Public-Key: (2048 bit)
                Modulus:
                    00:c9:9a:1d:af:5c:25:47:d3:c4:72:77:d8:32:67:
                    b6:6f:e4:dc:11:dc:46:34:bb:ad:af:8c:03:58:06:
                    a5:eb:29:10:8c:d1:2b:f4:20:46:42:73:99:64:68:
                    08:b9:81:b9:3e:8a:df:cd:a6:15:9c:88:e0:f8:54:
                    f4:c9:94:34:16:72:d6:8c:d5:9c:c9:53:78:5a:4e:
                    e7:94:0d:6f:58:4a:a9:ab:6f:f1:79:10:bb:8e:fd:
                    a9:53:61:87:d4:aa:f7:d2:c4:a3:55:23:45:e2:19:
                    96:d6:c3:55:47:76:94:91:41:56:92:bd:01:3d:7b:
                    71:ca:51:ad:cb:ff:32:ac:b5:1a:20:4f:41:63:7c:
                    53:79:9d:0c:ca:1a:e1:86:13:2c:3b:f9:3d:03:92:
                    e9:ea:f0:eb:58:d4:a4:28:ce:7e:ed:93:bc:d3:6d:
                    b2:20:55:6a:2a:c9:e9:20:b0:b7:d4:5b:c0:ac:35:
                    4d:c9:13:82:dc:06:b5:6d:f4:77:ce:3a:88:22:33:
                    21:d3:bd:c2:78:7d:a8:1a:d8:b6:58:68:56:96:36:
                    19:a6:a3:3f:2a:12:90:2b:9a:e6:56:aa:3e:ad:6a:
                    c0:00:29:0f:24:43:bb:fa:4a:0f:48:23:8e:0b:b9:
                    0e:d8:74:ce:b1:02:3a:ae:b3:2e:bd:bf:a8:79:10:
                    e5:35
                Exponent: 65537 (0x10001)
        X509v3 extensions:
            X509v3 Basic Constraints: 
                CA:FALSE
            Netscape Comment: 
                Easy-RSA Generated Certificate
            X509v3 Subject Key Identifier: 
                7F:EE:A1:8F:48:0D:59:38:B6:A7:80:56:20:8B:86:B7:2E:B8:46:8C
            X509v3 Authority Key Identifier: 
                keyid:59:0B:E4:33:52:CD:27:02:75:F1:B6:67:63:50:BA:17:3E:C5:2F:A4
                DirName:/C=RU/ST=CA/L=SanFrancisco/O=Fort/OU=MyOrganizationalUnit/CN=Fort CA/name=EasyRSA/emailAddress=me@mydomain
                serial:EF:B3:94:B9:94:F3:9A:20

            X509v3 Extended Key Usage: 
                TLS Web Client Authentication
            X509v3 Key Usage: 
                Digital Signature
            X509v3 Subject Alternative Name: 
                DNS:client2
    Signature Algorithm: sha256WithRSAEncryption
         94:5c:38:b2:09:d3:a8:bf:ba:47:cb:34:31:f1:eb:7b:73:bf:
         d5:b7:76:db:37:15:aa:2f:0c:a9:34:a9:e1:36:41:c1:1c:4d:
         09:c9:45:f8:e6:a3:98:8c:1e:65:f1:5c:6b:7a:3b:79:b8:7d:
         0c:c2:65:5a:75:fa:f0:24:36:93:eb:d0:98:c9:82:05:76:57:
         3c:6b:c0:30:f6:72:09:ea:10:62:b6:22:6d:11:95:ac:13:2f:
         6b:a6:51:5b:0f:40:e8:4e:ad:dc:56:c5:00:dd:03:69:2a:9f:
         ea:90:1c:f6:f8:af:e5:c0:97:3a:46:68:2e:64:08:e8:ca:2e:
         08:5a:05:56:e6:52:ec:e5:0e:8a:2c:44:05:4b:6f:ed:13:9d:
         81:30:6b:65:74:5f:c2:77:b3:6b:d2:29:2e:81:32:05:51:49:
         03:c3:fc:80:18:89:68:a2:ea:92:2f:c9:a4:4d:3a:d8:e8:42:
         8c:0e:10:b7:f6:4d:e1:89:8b:54:fd:95:67:7c:a6:e2:f2:b9:
         0e:8e:5e:f6:2e:5b:ce:75:e8:0b:c5:a4:06:7d:1b:93:dd:67:
         13:e7:e6:9a:ca:50:d1:46:83:c4:9b:7d:39:84:f6:4e:73:85:
         be:6b:b0:f0:67:1e:83:a0:8a:77:cb:df:97:2a:00:4f:1c:20:
         9a:c6:28:91
-----BEGIN CERTIFICATE-----
MIIFKTCCBBGgAwIBAgIBAzANBgkqhkiG9w0BAQsFADCBnzELMAkGA1UEBhMCUlUx
CzAJBgNVBAgTAkNBMRUwEwYDVQQHEwxTYW5GcmFuY2lzY28xDTALBgNVBAoTBEZv
cnQxHTAbBgNVBAsTFE15T3JnYW5pemF0aW9uYWxVbml0MRAwDgYDVQQDEwdGb3J0
IENBMRAwDgYDVQQpEwdFYXN5UlNBMRowGAYJKoZIhvcNAQkBFgttZUBteWRvbWFp
bjAgFw0xNzAzMDYwNDM2MDFaGA8yMTE3MDIxMDA0MzYwMVowgZ8xCzAJBgNVBAYT
AlVTMQswCQYDVQQIEwJDQTEVMBMGA1UEBxMMU2FuRnJhbmNpc2NvMQ0wCwYDVQQK
EwRGb3J0MR0wGwYDVQQLExRNeU9yZ2FuaXphdGlvbmFsVW5pdDEQMA4GA1UEAxMH
Y2xpZW50MjEQMA4GA1UEKRMHRWFzeVJTQTEaMBgGCSqGSIb3DQEJARYLbWVAbXlk
b21haW4wggEiMA0GCSqGSIb3DQEBAQUAA4IBDwAwggEKAoIBAQDJmh2vXCVH08Ry
d9gyZ7Zv5NwR3EY0u62vjANYBqXrKRCM0Sv0IEZCc5lkaAi5gbk+it/NphWciOD4
VPTJlDQWctaM1ZzJU3haTueUDW9YSqmrb/F5ELuO/alTYYfUqvfSxKNVI0XiGZbW
w1VHdpSRQVaSvQE9e3HKUa3L/zKstRogT0FjfFN5nQzKGuGGEyw7+T0Dkunq8OtY
1KQozn7tk7zTbbIgVWoqyekgsLfUW8CsNU3JE4LcBrVt9HfOOogiMyHTvcJ4faga
2LZYaFaWNhmmoz8qEpArmuZWqj6tasAAKQ8kQ7v6Sg9II44LuQ7YdM6xAjqusy69
v6h5EOU1AgMBAAGjggFqMIIBZjAJBgNVHRMEAjAAMC0GCWCGSAGG+EIBDQQgFh5F
YXN5LVJTQSBHZW5lcmF0ZWQgQ2VydGlmaWNhdGUwHQYDVR0OBBYEFH/uoY9IDVk4
tqeAViCLhrcuuEaMMIHUBgNVHSMEgcwwgcmAFFkL5DNSzScCdfG2Z2NQuhc+xS+k
oYGlpIGiMIGfMQswCQYDVQQGEwJSVTELMAkGA1UECBMCQ0ExFTATBgNVBAcTDFNh
bkZyYW5jaXNjbzENMAsGA1UEChMERm9ydDEdMBsGA1UECxMUTXlPcmdhbml6YXRp
b25hbFVuaXQxEDAOBgNVBAMTB0ZvcnQgQ0ExEDAOBgNVBCkTB0Vhc3lSU0ExGjAY
BgkqhkiG9w0BCQEWC21lQG15ZG9tYWluggkA77OUuZTzmiAwEwYDVR0lBAwwCgYI
KwYBBQUHAwIwCwYDVR0PBAQDAgeAMBIGA1UdEQQLMAmCB2NsaWVudDIwDQYJKoZI
hvcNAQELBQADggEBAJRcOLIJ06i/ukfLNDHx63tzv9W3dts3FaovDKk0qeE2QcEc
TQnJRfjmo5iMHmXxXGt6O3m4fQzCZVp1+vAkNpPr0JjJggV2VzxrwDD2cgnqEGK2
Im0RlawTL2umUVsPQOhOrdxWxQDdA2kqn+qQHPb4r+XAlzpGaC5kCOjKLghaBVbm
UuzlDoosRAVLb+0TnYEwa2V0X8J3s2vSKS6BMgVRSQPD/IAYiWii6pIvyaRNOtjo
QowOELf2TeGJi1T9lWd8puLyuQ6OXvYuW8516AvFpAZ9G5PdZxPn5prKUNFGg8Sb
fTmE9k5zhb5rsPBnHoOginfL35cqAE8cIJrGKJE=
-----END CERTIFICATE-----
